(dp1
S'node_deps'
p2
(dp3
S'\x1f\x13\xab\xc9@4*\xc4P\xf7 \xcb\x8a\xc4\xcf\xf2'
p4
(lp5
ccopy_reg
_reconstructor
p6
(cwaflib.Node
Nod3
p7
c__builtin__
object
p8
NtRp9
(S'liba.h'
p10
g6
(g7
g8
NtRp11
(S'liba'
p12
g6
(g7
g8
NtRp13
(S'inc'
p14
g6
(g7
g8
NtRp15
(S'liba'
p16
g6
(g7
g8
NtRp17
(S'waf-c-example'
p18
g6
(g7
g8
NtRp19
(S'Github-projects'
p20
g6
(g7
g8
NtRp21
(S'emorlock'
p22
g6
(g7
g8
NtRp23
(S'Users'
p24
g6
(g7
g8
NtRp25
(S''
N(dp26
g24
g23
sNtb(dp27
g22
g21
sNtb(dp28
g20
g19
sNtb(dp29
g18
g17
sNtb(dp30
S'wscript'
p31
g6
(g7
g8
NtRp32
(g31
g17
NNtbsS'app'
p33
g6
(g7
g8
NtRp34
(g33
g17
(dp35
S'wscript'
p36
g6
(g7
g8
NtRp37
(g36
g34
NNtbsS'src'
p38
g6
(g7
g8
NtRp39
(g38
g34
(dp40
S'app.c'
p41
g6
(g7
g8
NtRp42
(g41
g39
NS'\xeb\n\xcf.\xd3\xea\x05nP\x9f\xc28\x0f/\x07J'
p43
tbsNtbsNtbsg16
g15
sS'__build__'
p44
g6
(g7
g8
NtRp45
(g44
g17
(dp46
S'libb'
p47
g6
(g7
g8
NtRp48
(g47
g45
(dp49
S'src'
p50
g6
(g7
g8
NtRp51
(g50
g48
(dp52
S'libb.c.1.o'
p53
g6
(g7
g8
NtRp54
(g53
g51
NS"\xa8zV$\xa2\xc8\xfe\xb6\xa9\x15\xa4\xd0\xaf5\x12'"
p55
tbsNtbsg14
g6
(g7
g8
NtRp56
(g14
g48
(dp57
NtbsS'liblibb.dylib'
p58
g6
(g7
g8
NtRp59
(g58
g48
NS'F\xdav5F\x1be\x9a\xb5\x10\x95.\x94s\x91C'
p60
tbsNtbsg33
g6
(g7
g8
NtRp61
(g33
g45
(dp62
g38
g6
(g7
g8
NtRp63
(g38
g61
(dp64
S'app.c.1.o'
p65
g6
(g7
g8
NtRp66
(g65
g63
NS'=\xa8\x19\x06YN\x9e\\/9Z30\xed\xba\xa8'
p67
tbsNtbsS'app'
p68
g6
(g7
g8
NtRp69
(g68
g61
NS'\xcb\x97\xfdl\xfa\x01X\x94\x9bU\x0f\xfc\x8a\xd7\xb6\x1a'
p70
tbsNtbsS'c4che'
p71
g6
(g7
g8
NtRp72
(g71
g45
(dp73
S'_cache.py'
p74
g6
(g7
g8
NtRp75
(g74
g72
NNtbsS'build.config.py'
p76
g6
(g7
g8
NtRp77
(g76
g72
NNtbsNtbsg16
g6
(g7
g8
NtRp78
(g16
g45
(dp79
S'src'
p80
g6
(g7
g8
NtRp81
(g80
g78
(dp82
S'liba.c.1.o'
p83
g6
(g7
g8
NtRp84
(g83
g81
NS'\x8eH\xd0\x99i7pm\x97\xd32\xb8\xad@\xa0\xcc'
p85
tbsNtbsS'libliba.dylib'
p86
g6
(g7
g8
NtRp87
(g86
g78
NS'?\x9b\x83\xcaR \x08\xb3=Z,V!\xfe\xbd\x85'
p88
tbsg14
g6
(g7
g8
NtRp89
(g14
g78
(dp90
NtbsNtbsNtbsg47
g6
(g7
g8
NtRp91
(g47
g17
(dp92
S'wscript'
p93
g6
(g7
g8
NtRp94
(g93
g91
NNtbsg14
g6
(g7
g8
NtRp95
(g14
g91
(dp96
S'libb'
p97
g6
(g7
g8
NtRp98
(g97
g95
(dp99
S'libb.h'
p100
g6
(g7
g8
NtRp101
(g100
g98
NS'\xdctN5%mG\xa2\xa3\x8f\xa7\xe92W\x0b\x15'
p102
tbsNtbsNtbsg50
g6
(g7
g8
NtRp103
(g50
g91
(dp104
S'libb.c'
p105
g6
(g7
g8
NtRp106
(g105
g103
NS'\xa4~n\xceeL\x8eb\xfc\x8b\x8f\x97\x87rB5'
p107
tbsNtbsNtbsNtb(dp108
S'wscript'
p109
g6
(g7
g8
NtRp110
(g109
g15
NNtbsg14
g13
sg80
g6
(g7
g8
NtRp111
(g80
g15
(dp112
S'liba.c'
p113
g6
(g7
g8
NtRp114
(g113
g111
NS'\xe1C.\xcb\x94\xa7e\xb3i\xf5\xe7\xaeHd@\x02'
p115
tbsNtbsNtb(dp116
g12
g11
sNtb(dp117
g10
g9
sNtbNS' \xcc=+\x84@\xad\x01z\xae\x92\xf5\x7f\r\xe3T'
p118
tbasS'\xff:,\x9a\xe9\n\xdaz#yM\x1b\xdb~\xdbk'
p119
(lp120
g9
ag101
asS'\x8e\x83\xf0\xfa\x80H\x8a\xe8\x0c\xf4\xb4F\xf3\xff\xf7z'
p121
(lp122
g9
ag101
assS'raw_deps'
p123
(dp124
g4
(lp125
S'stdio.h'
p126
asg119
(lp127
S'stdio.h'
p128
asg121
(lp129
S'stdio.h'
p130
assS'root'
p131
g25
sS'task_sigs'
p132
(dp133
S'\xd7\xde`G~\xea\x16\x87Jr\x10\xdf(8S\xaf'
p134
g60
sg121
g67
sS'\x03\x1d\xa2S\xe4\xe3\x92\xd4lw\x11q\x8c\xcf\xa7&'
p135
g70
sS'\xab0\xf3\xea\xca\xc5X57\xc6\xd75\xb6\xb9z0'
p136
g88
sg4
g85
sg119
g55
s(g119
S'imp'
p137
tp138
S"\xa8zV$\xa2\xc8\xfe\xb6\xa9\x15\xa4\xd0\xaf5\x12'"
p139
s(g121
g137
tp140
S'=\xa8\x19\x06YN\x9e\\/9Z30\xed\xba\xa8'
p141
s(g4
g137
tp142
S'\x8eH\xd0\x99i7pm\x97\xd32\xb8\xad@\xa0\xcc'
p143
ss.